; Function Attrs: nounwind uwtable
define hidden ptr @mi_heap_new_in_arena(i32 noundef %0) local_unnamed_addr #0 {
  tail call void @mi_thread_init() #11
  %2 = tail call align 8 ptr @llvm.threadlocal.address.p0(ptr align 8 @_mi_heap_default)
  %3 = load ptr, ptr %2, align 8, !tbaa !40
  %4 = load ptr, ptr %3, align 8, !tbaa !14
  %5 = getelementptr inbounds nuw i8, ptr %4, i64 16
  %6 = load ptr, ptr %5, align 8, !tbaa !15
  %7 = tail call noalias ptr @mi_heap_malloc(ptr noundef %6, i64 noundef 3064) #11
  %8 = icmp eq ptr %7, null
  br i1 %8, label %mi_heap_new_ex.exit, label %9

9:                                                ; preds = %1
  %10 = load ptr, ptr %6, align 8, !tbaa !14
  tail call void @_mi_heap_init(ptr noundef nonnull %7, ptr noundef %10, i32 noundef %0, i1 noundef zeroext false, i8 noundef zeroext 0) #10
  br label %mi_heap_new_ex.exit

mi_heap_new_ex.exit:                              ; preds = %1, %9
  ret ptr %7
}